	.file	"main.cpp"
	.text
	.local	_ZStL8__ioinit
	.comm	_ZStL8__ioinit,1,1
	.section	.text._Z5feiboi,"axG",@progbits,_Z5feiboi,comdat
	.weak	_Z5feiboi
	.type	_Z5feiboi, @function
_Z5feiboi:
.LFB1761:
	.cfi_startproc
	pushq	%rbp
	.cfi_def_cfa_offset 16
	.cfi_offset 6, -16
	movq	%rsp, %rbp
	.cfi_def_cfa_register 6
	pushq	%rbx
	subq	$24, %rsp
	.cfi_offset 3, -24
	movl	%edi, -20(%rbp)
	cmpl	$2, -20(%rbp)
	jg	.L2
	movl	$1, %eax
	jmp	.L3
.L2:
	movl	-20(%rbp), %eax
	subl	$1, %eax
	movl	%eax, %edi
	call	_Z5feiboi
	movl	%eax, %ebx
	movl	-20(%rbp), %eax
	subl	$2, %eax
	movl	%eax, %edi
	call	_Z5feiboi
	addl	%ebx, %eax
.L3:
	movq	-8(%rbp), %rbx
	leave
	.cfi_def_cfa 7, 8
	ret
	.cfi_endproc
.LFE1761:
	.size	_Z5feiboi, .-_Z5feiboi
	.text
	.globl	_Z3addv
	.type	_Z3addv, @function
_Z3addv:
.LFB1762:
	.cfi_startproc
	pushq	%rbp
	.cfi_def_cfa_offset 16
	.cfi_offset 6, -16
	movq	%rsp, %rbp
	.cfi_def_cfa_register 6
	movl	$1, %eax
	popq	%rbp
	.cfi_def_cfa 7, 8
	ret
	.cfi_endproc
.LFE1762:
	.size	_Z3addv, .-_Z3addv
	.section	.text._Z3addRi,"axG",@progbits,_Z3addRi,comdat
	.weak	_Z3addRi
	.type	_Z3addRi, @function
_Z3addRi:
.LFB1763:
	.cfi_startproc
	pushq	%rbp
	.cfi_def_cfa_offset 16
	.cfi_offset 6, -16
	movq	%rsp, %rbp
	.cfi_def_cfa_register 6
	movq	%rdi, -8(%rbp)
	movq	-8(%rbp), %rax
	movl	(%rax), %eax
	leal	1(%rax), %edx
	movq	-8(%rbp), %rax
	movl	%edx, (%rax)
	movq	-8(%rbp), %rax
	movl	(%rax), %eax
	popq	%rbp
	.cfi_def_cfa 7, 8
	ret
	.cfi_endproc
.LFE1763:
	.size	_Z3addRi, .-_Z3addRi
	.text
	.globl	main
	.type	main, @function
main:
.LFB1764:
	.cfi_startproc
	pushq	%rbp
	.cfi_def_cfa_offset 16
	.cfi_offset 6, -16
	movq	%rsp, %rbp
	.cfi_def_cfa_register 6
	subq	$16, %rsp
	movl	$10, %edi
	call	_Z5feiboi
	movl	%eax, %esi
	leaq	_ZSt4cout(%rip), %rax
	movq	%rax, %rdi
	call	_ZNSolsEi@PLT
	movq	_ZSt4endlIcSt11char_traitsIcEERSt13basic_ostreamIT_T0_ES6_@GOTPCREL(%rip), %rdx
	movq	%rdx, %rsi
	movq	%rax, %rdi
	call	_ZNSolsEPFRSoS_E@PLT
	movl	$10, -8(%rbp)
	movl	$0, -4(%rbp)
	jmp	.L9
.L10:
	leaq	-8(%rbp), %rax
	movq	%rax, %rdi
	call	_Z3addRi
	addl	$1, -4(%rbp)
.L9:
	cmpl	$999, -4(%rbp)
	jle	.L10
	call	_Z3addv
	movl	$0, %eax
	leave
	.cfi_def_cfa 7, 8
	ret
	.cfi_endproc
.LFE1764:
	.size	main, .-main
	.type	_Z41__static_initialization_and_destruction_0ii, @function
_Z41__static_initialization_and_destruction_0ii:
.LFB2293:
	.cfi_startproc
	pushq	%rbp
	.cfi_def_cfa_offset 16
	.cfi_offset 6, -16
	movq	%rsp, %rbp
	.cfi_def_cfa_register 6
	subq	$16, %rsp
	movl	%edi, -4(%rbp)
	movl	%esi, -8(%rbp)
	cmpl	$1, -4(%rbp)
	jne	.L14
	cmpl	$65535, -8(%rbp)
	jne	.L14
	leaq	_ZStL8__ioinit(%rip), %rax
	movq	%rax, %rdi
	call	_ZNSt8ios_base4InitC1Ev@PLT
	leaq	__dso_handle(%rip), %rax
	movq	%rax, %rdx
	leaq	_ZStL8__ioinit(%rip), %rax
	movq	%rax, %rsi
	movq	_ZNSt8ios_base4InitD1Ev@GOTPCREL(%rip), %rax
	movq	%rax, %rdi
	call	__cxa_atexit@PLT
.L14:
	nop
	leave
	.cfi_def_cfa 7, 8
	ret
	.cfi_endproc
.LFE2293:
	.size	_Z41__static_initialization_and_destruction_0ii, .-_Z41__static_initialization_and_destruction_0ii
	.type	_GLOBAL__sub_I__Z3addv, @function
_GLOBAL__sub_I__Z3addv:
.LFB2294:
	.cfi_startproc
	pushq	%rbp
	.cfi_def_cfa_offset 16
	.cfi_offset 6, -16
	movq	%rsp, %rbp
	.cfi_def_cfa_register 6
	movl	$65535, %esi
	movl	$1, %edi
	call	_Z41__static_initialization_and_destruction_0ii
	popq	%rbp
	.cfi_def_cfa 7, 8
	ret
	.cfi_endproc
.LFE2294:
	.size	_GLOBAL__sub_I__Z3addv, .-_GLOBAL__sub_I__Z3addv
	.section	.init_array,"aw"
	.align 8
	.quad	_GLOBAL__sub_I__Z3addv
	.hidden	__dso_handle
	.ident	"GCC: (Debian 12.2.0-14) 12.2.0"
	.section	.note.GNU-stack,"",@progbits
